ARM GAS  C:\Users\Michael\AppData\Local\Temp\ccGvDO2v.s 			page 1


   1              		.syntax unified
   2              		.cpu cortex-m3
   3              		.fpu softvfp
   4              		.eabi_attribute 20, 1
   5              		.eabi_attribute 21, 1
   6              		.eabi_attribute 23, 3
   7              		.eabi_attribute 24, 1
   8              		.eabi_attribute 25, 1
   9              		.eabi_attribute 26, 1
  10              		.eabi_attribute 30, 1
  11              		.eabi_attribute 34, 1
  12              		.eabi_attribute 18, 4
  13              		.thumb
  14              		.file	"dc_motor.c"
  15              		.text
  16              	.Ltext0:
  17              		.cfi_sections	.debug_frame
  18              		.section	.text.init_dc_motors,"ax",%progbits
  19              		.align	2
  20              		.global	init_dc_motors
  21              		.thumb
  22              		.thumb_func
  23              		.type	init_dc_motors, %function
  24              	init_dc_motors:
  25              	.LFB63:
  26              		.file 1 ".\\dc_motor.c"
   1:.\dc_motor.c  **** /* ========================================
   2:.\dc_motor.c  ****  *
   3:.\dc_motor.c  ****  * Copyright YOUR COMPANY, THE YEAR
   4:.\dc_motor.c  ****  * All Rights Reserved
   5:.\dc_motor.c  ****  * UNPUBLISHED, LICENSED SOFTWARE.
   6:.\dc_motor.c  ****  *
   7:.\dc_motor.c  ****  * CONFIDENTIAL AND PROPRIETARY INFORMATION
   8:.\dc_motor.c  ****  * WHICH IS THE PROPERTY OF your company.
   9:.\dc_motor.c  ****  *
  10:.\dc_motor.c  ****  * ========================================
  11:.\dc_motor.c  **** */
  12:.\dc_motor.c  **** #include "project.h"
  13:.\dc_motor.c  **** #include "dc_motor.h"
  14:.\dc_motor.c  **** 
  15:.\dc_motor.c  **** const int NUM_DC_MOTORS = 3;
  16:.\dc_motor.c  **** const float DC_MOTOR_SPEED_TOLERANCE = 0.0;
  17:.\dc_motor.c  **** const float DC_MOTOR_POS_TOLERANCE = 2.0;
  18:.\dc_motor.c  **** 
  19:.\dc_motor.c  **** // initialize all PSoC components for DC motors
  20:.\dc_motor.c  **** void init_dc_motors() {
  27              		.loc 1 20 0
  28              		.cfi_startproc
  29              		@ args = 0, pretend = 0, frame = 0
  30              		@ frame_needed = 0, uses_anonymous_args = 0
  31 0000 08B5     		push	{r3, lr}
  32              		.cfi_def_cfa_offset 8
  33              		.cfi_offset 3, -8
  34              		.cfi_offset 14, -4
  21:.\dc_motor.c  ****     Left_Drive_DC_Motor_PWM_Start();
  35              		.loc 1 21 0
  36 0002 FFF7FEFF 		bl	Left_Drive_DC_Motor_PWM_Start
ARM GAS  C:\Users\Michael\AppData\Local\Temp\ccGvDO2v.s 			page 2


  37              	.LVL0:
  22:.\dc_motor.c  ****     Right_Drive_DC_Motor_PWM_Start();
  38              		.loc 1 22 0
  39 0006 FFF7FEFF 		bl	Right_Drive_DC_Motor_PWM_Start
  40              	.LVL1:
  41 000a 08BD     		pop	{r3, pc}
  42              		.cfi_endproc
  43              	.LFE63:
  44              		.size	init_dc_motors, .-init_dc_motors
  45              		.section	.text.construct_dc_motor,"ax",%progbits
  46              		.align	2
  47              		.global	construct_dc_motor
  48              		.thumb
  49              		.thumb_func
  50              		.type	construct_dc_motor, %function
  51              	construct_dc_motor:
  52              	.LFB64:
  23:.\dc_motor.c  **** }
  24:.\dc_motor.c  **** 
  25:.\dc_motor.c  **** // build a DC motor struct object with the specified settings
  26:.\dc_motor.c  **** void construct_dc_motor(DC_MOTOR *dc_motor, uint8 id, int16 max_pwm, uint16 counts_per_rot, float m
  53              		.loc 1 26 0
  54              		.cfi_startproc
  55              		@ args = 8, pretend = 0, frame = 0
  56              		@ frame_needed = 0, uses_anonymous_args = 0
  57              		@ link register save eliminated.
  58              	.LVL2:
  27:.\dc_motor.c  ****     dc_motor->id = id;
  59              		.loc 1 27 0
  60 0000 0170     		strb	r1, [r0]
  28:.\dc_motor.c  ****     dc_motor->max_pwm = max_pwm;
  61              		.loc 1 28 0
  62 0002 8280     		strh	r2, [r0, #4]	@ movhi
  29:.\dc_motor.c  ****     dc_motor->pwm = 0;
  63              		.loc 1 29 0
  64 0004 0022     		movs	r2, #0
  65              	.LVL3:
  66 0006 4280     		strh	r2, [r0, #2]	@ movhi
  30:.\dc_motor.c  ****     dc_motor->counts_per_rot = counts_per_rot;
  67              		.loc 1 30 0
  68 0008 C380     		strh	r3, [r0, #6]	@ movhi
  31:.\dc_motor.c  ****     dc_motor->enc_count = 0;
  69              		.loc 1 31 0
  70 000a 0281     		strh	r2, [r0, #8]	@ movhi
  32:.\dc_motor.c  ****     dc_motor->max_pos = max_pos;
  71              		.loc 1 32 0
  72 000c 009B     		ldr	r3, [sp]	@ float
  73              	.LVL4:
  74 000e C360     		str	r3, [r0, #12]	@ float
  33:.\dc_motor.c  ****     dc_motor->min_pos = min_pos;
  75              		.loc 1 33 0
  76 0010 019B     		ldr	r3, [sp, #4]	@ float
  77 0012 0361     		str	r3, [r0, #16]	@ float
  34:.\dc_motor.c  ****     dc_motor->pos = 0;
  78              		.loc 1 34 0
  79 0014 0023     		movs	r3, #0
  80 0016 4361     		str	r3, [r0, #20]	@ float
ARM GAS  C:\Users\Michael\AppData\Local\Temp\ccGvDO2v.s 			page 3


  35:.\dc_motor.c  ****     dc_motor->prev_pos = 0;
  81              		.loc 1 35 0
  82 0018 8361     		str	r3, [r0, #24]	@ float
  36:.\dc_motor.c  ****     dc_motor->vel = 0;
  83              		.loc 1 36 0
  84 001a C361     		str	r3, [r0, #28]	@ float
  37:.\dc_motor.c  ****     dc_motor->prev_vel = 0;
  85              		.loc 1 37 0
  86 001c 0362     		str	r3, [r0, #32]	@ float
  38:.\dc_motor.c  ****     dc_motor->vel_filt = 0;
  87              		.loc 1 38 0
  88 001e 4362     		str	r3, [r0, #36]	@ float
  89 0020 7047     		bx	lr
  90              		.cfi_endproc
  91              	.LFE64:
  92              		.size	construct_dc_motor, .-construct_dc_motor
  93 0022 00BF     		.section	.text.set_dc_motor_pwm,"ax",%progbits
  94              		.align	2
  95              		.global	set_dc_motor_pwm
  96              		.thumb
  97              		.thumb_func
  98              		.type	set_dc_motor_pwm, %function
  99              	set_dc_motor_pwm:
 100              	.LFB65:
  39:.\dc_motor.c  **** }
  40:.\dc_motor.c  **** 
  41:.\dc_motor.c  **** // drive the DC motor with a specific PWM
  42:.\dc_motor.c  **** void set_dc_motor_pwm(DC_MOTOR *dc_motor, int16 pwm) {
 101              		.loc 1 42 0
 102              		.cfi_startproc
 103              		@ args = 0, pretend = 0, frame = 0
 104              		@ frame_needed = 0, uses_anonymous_args = 0
 105              	.LVL5:
 106 0000 38B5     		push	{r3, r4, r5, lr}
 107              		.cfi_def_cfa_offset 16
 108              		.cfi_offset 3, -16
 109              		.cfi_offset 4, -12
 110              		.cfi_offset 5, -8
 111              		.cfi_offset 14, -4
 112 0002 0446     		mov	r4, r0
 113 0004 0D46     		mov	r5, r1
  43:.\dc_motor.c  ****     // if the PWM value provided is outside of the max PWM value of the motor, clip it
  44:.\dc_motor.c  ****     if (abs(pwm) > dc_motor->max_pwm) {
 114              		.loc 1 44 0
 115 0006 81EAE171 		eor	r1, r1, r1, asr #31
 116              	.LVL6:
 117 000a A1EBE571 		sub	r1, r1, r5, asr #31
 118 000e 8388     		ldrh	r3, [r0, #4]
 119 0010 1AB2     		sxth	r2, r3
 120 0012 9142     		cmp	r1, r2
 121 0014 07DD     		ble	.L5
  45:.\dc_motor.c  ****         if (pwm < 0) 
 122              		.loc 1 45 0
 123 0016 002D     		cmp	r5, #0
 124 0018 01DA     		bge	.L6
  46:.\dc_motor.c  ****             dc_motor->pwm = -dc_motor->max_pwm;
 125              		.loc 1 46 0
ARM GAS  C:\Users\Michael\AppData\Local\Temp\ccGvDO2v.s 			page 4


 126 001a 5A42     		negs	r2, r3
 127 001c 4280     		strh	r2, [r0, #2]	@ movhi
 128              	.L6:
  47:.\dc_motor.c  ****         if (pwm > 0) 
 129              		.loc 1 47 0
 130 001e 002D     		cmp	r5, #0
 131 0020 02DD     		ble	.L7
  48:.\dc_motor.c  ****             dc_motor->pwm = dc_motor->max_pwm;
 132              		.loc 1 48 0
 133 0022 6380     		strh	r3, [r4, #2]	@ movhi
 134 0024 00E0     		b	.L7
 135              	.L5:
  49:.\dc_motor.c  ****     } else {
  50:.\dc_motor.c  ****         dc_motor->pwm = pwm;
 136              		.loc 1 50 0
 137 0026 4580     		strh	r5, [r0, #2]	@ movhi
 138              	.L7:
  51:.\dc_motor.c  ****     }
  52:.\dc_motor.c  ****     
  53:.\dc_motor.c  ****     // write the PWM value to the appropriate pins for the correct DC motor, based on the DBH-12V m
  54:.\dc_motor.c  ****     if (dc_motor->id == LEFT_DRIVE_DC_MOTOR) {
 139              		.loc 1 54 0
 140 0028 2378     		ldrb	r3, [r4]	@ zero_extendqisi2
 141 002a 0BBB     		cbnz	r3, .L8
  55:.\dc_motor.c  ****         if (pwm < 0) {
 142              		.loc 1 55 0
 143 002c 002D     		cmp	r5, #0
 144 002e 0BDA     		bge	.L9
  56:.\dc_motor.c  ****             Left_Drive_DC_Motor_PWM_WriteCompare(abs(dc_motor->pwm));
 145              		.loc 1 56 0
 146 0030 B4F90200 		ldrsh	r0, [r4, #2]
 147              	.LVL7:
 148 0034 0028     		cmp	r0, #0
 149 0036 B8BF     		it	lt
 150 0038 4042     		rsblt	r0, r0, #0
 151 003a C0B2     		uxtb	r0, r0
 152 003c FFF7FEFF 		bl	Left_Drive_DC_Motor_PWM_WriteCompare
 153              	.LVL8:
  57:.\dc_motor.c  ****             Left_Drive_DC_Motor_Direction_Write(1);
 154              		.loc 1 57 0
 155 0040 0120     		movs	r0, #1
 156 0042 FFF7FEFF 		bl	Left_Drive_DC_Motor_Direction_Write
 157              	.LVL9:
 158 0046 13E0     		b	.L8
 159              	.LVL10:
 160              	.L9:
  58:.\dc_motor.c  ****         } else if (pwm > 0) {
 161              		.loc 1 58 0
 162 0048 002D     		cmp	r5, #0
 163 004a 0BDD     		ble	.L10
  59:.\dc_motor.c  ****             Left_Drive_DC_Motor_PWM_WriteCompare(abs(dc_motor->pwm));
 164              		.loc 1 59 0
 165 004c B4F90200 		ldrsh	r0, [r4, #2]
 166              	.LVL11:
 167 0050 0028     		cmp	r0, #0
 168 0052 B8BF     		it	lt
 169 0054 4042     		rsblt	r0, r0, #0
ARM GAS  C:\Users\Michael\AppData\Local\Temp\ccGvDO2v.s 			page 5


 170 0056 C0B2     		uxtb	r0, r0
 171 0058 FFF7FEFF 		bl	Left_Drive_DC_Motor_PWM_WriteCompare
 172              	.LVL12:
  60:.\dc_motor.c  ****             Left_Drive_DC_Motor_Direction_Write(0);
 173              		.loc 1 60 0
 174 005c 0020     		movs	r0, #0
 175 005e FFF7FEFF 		bl	Left_Drive_DC_Motor_Direction_Write
 176              	.LVL13:
 177 0062 05E0     		b	.L8
 178              	.LVL14:
 179              	.L10:
  61:.\dc_motor.c  ****         } else {
  62:.\dc_motor.c  ****             Left_Drive_DC_Motor_PWM_WriteCompare(0);
 180              		.loc 1 62 0
 181 0064 0020     		movs	r0, #0
 182              	.LVL15:
 183 0066 FFF7FEFF 		bl	Left_Drive_DC_Motor_PWM_WriteCompare
 184              	.LVL16:
  63:.\dc_motor.c  ****             Left_Drive_DC_Motor_Direction_Write(0);
 185              		.loc 1 63 0
 186 006a 0020     		movs	r0, #0
 187 006c FFF7FEFF 		bl	Left_Drive_DC_Motor_Direction_Write
 188              	.LVL17:
 189              	.L8:
  64:.\dc_motor.c  ****         }
  65:.\dc_motor.c  ****     }
  66:.\dc_motor.c  ****     
  67:.\dc_motor.c  ****     // write the PWM value to the appropriate pins for the correct DC motor, based on the DBH-12V m
  68:.\dc_motor.c  ****     if (dc_motor->id == RIGHT_DRIVE_DC_MOTOR) {
 190              		.loc 1 68 0
 191 0070 2378     		ldrb	r3, [r4]	@ zero_extendqisi2
 192 0072 012B     		cmp	r3, #1
 193 0074 21D1     		bne	.L11
  69:.\dc_motor.c  ****         if (pwm < 0) {
 194              		.loc 1 69 0
 195 0076 002D     		cmp	r5, #0
 196 0078 0BDA     		bge	.L12
  70:.\dc_motor.c  ****             Right_Drive_DC_Motor_PWM_WriteCompare(abs(dc_motor->pwm));
 197              		.loc 1 70 0
 198 007a B4F90200 		ldrsh	r0, [r4, #2]
 199 007e 0028     		cmp	r0, #0
 200 0080 B8BF     		it	lt
 201 0082 4042     		rsblt	r0, r0, #0
 202 0084 C0B2     		uxtb	r0, r0
 203 0086 FFF7FEFF 		bl	Right_Drive_DC_Motor_PWM_WriteCompare
 204              	.LVL18:
  71:.\dc_motor.c  ****             Right_Drive_DC_Motor_Direction_Write(1);
 205              		.loc 1 71 0
 206 008a 0120     		movs	r0, #1
 207 008c FFF7FEFF 		bl	Right_Drive_DC_Motor_Direction_Write
 208              	.LVL19:
 209 0090 13E0     		b	.L11
 210              	.L12:
  72:.\dc_motor.c  ****         } else if (pwm > 0) {
 211              		.loc 1 72 0
 212 0092 002D     		cmp	r5, #0
 213 0094 0BDD     		ble	.L13
ARM GAS  C:\Users\Michael\AppData\Local\Temp\ccGvDO2v.s 			page 6


  73:.\dc_motor.c  ****             Right_Drive_DC_Motor_PWM_WriteCompare(abs(dc_motor->pwm));
 214              		.loc 1 73 0
 215 0096 B4F90200 		ldrsh	r0, [r4, #2]
 216 009a 0028     		cmp	r0, #0
 217 009c B8BF     		it	lt
 218 009e 4042     		rsblt	r0, r0, #0
 219 00a0 C0B2     		uxtb	r0, r0
 220 00a2 FFF7FEFF 		bl	Right_Drive_DC_Motor_PWM_WriteCompare
 221              	.LVL20:
  74:.\dc_motor.c  ****             Right_Drive_DC_Motor_Direction_Write(0);
 222              		.loc 1 74 0
 223 00a6 0020     		movs	r0, #0
 224 00a8 FFF7FEFF 		bl	Right_Drive_DC_Motor_Direction_Write
 225              	.LVL21:
 226 00ac 05E0     		b	.L11
 227              	.L13:
  75:.\dc_motor.c  ****         } else {
  76:.\dc_motor.c  ****             Right_Drive_DC_Motor_PWM_WriteCompare(0);
 228              		.loc 1 76 0
 229 00ae 0020     		movs	r0, #0
 230 00b0 FFF7FEFF 		bl	Right_Drive_DC_Motor_PWM_WriteCompare
 231              	.LVL22:
  77:.\dc_motor.c  ****             Right_Drive_DC_Motor_Direction_Write(0);
 232              		.loc 1 77 0
 233 00b4 0020     		movs	r0, #0
 234 00b6 FFF7FEFF 		bl	Right_Drive_DC_Motor_Direction_Write
 235              	.LVL23:
 236              	.L11:
  78:.\dc_motor.c  ****         }
  79:.\dc_motor.c  ****     }
  80:.\dc_motor.c  ****     
  81:.\dc_motor.c  ****     if (dc_motor->id == CENTER_LIFT_DC_MOTOR) {
 237              		.loc 1 81 0
 238 00ba 2378     		ldrb	r3, [r4]	@ zero_extendqisi2
 239 00bc 022B     		cmp	r3, #2
 240 00be 17D1     		bne	.L14
  82:.\dc_motor.c  ****         if (pwm < 0) {
 241              		.loc 1 82 0
 242 00c0 002D     		cmp	r5, #0
 243 00c2 06DA     		bge	.L15
  83:.\dc_motor.c  ****             Center_Lift_DC_Motor_Direction_1_Write(1);
 244              		.loc 1 83 0
 245 00c4 0120     		movs	r0, #1
 246 00c6 FFF7FEFF 		bl	Center_Lift_DC_Motor_Direction_1_Write
 247              	.LVL24:
  84:.\dc_motor.c  ****             Center_Lift_DC_Motor_Direction_2_Write(0);
 248              		.loc 1 84 0
 249 00ca 0020     		movs	r0, #0
 250 00cc FFF7FEFF 		bl	Center_Lift_DC_Motor_Direction_2_Write
 251              	.LVL25:
 252 00d0 0EE0     		b	.L14
 253              	.L15:
  85:.\dc_motor.c  ****         } else if (pwm > 0) {
 254              		.loc 1 85 0
 255 00d2 002D     		cmp	r5, #0
 256 00d4 06DD     		ble	.L16
  86:.\dc_motor.c  ****             Center_Lift_DC_Motor_Direction_1_Write(0);
ARM GAS  C:\Users\Michael\AppData\Local\Temp\ccGvDO2v.s 			page 7


 257              		.loc 1 86 0
 258 00d6 0020     		movs	r0, #0
 259 00d8 FFF7FEFF 		bl	Center_Lift_DC_Motor_Direction_1_Write
 260              	.LVL26:
  87:.\dc_motor.c  ****             Center_Lift_DC_Motor_Direction_2_Write(1);
 261              		.loc 1 87 0
 262 00dc 0120     		movs	r0, #1
 263 00de FFF7FEFF 		bl	Center_Lift_DC_Motor_Direction_2_Write
 264              	.LVL27:
 265 00e2 05E0     		b	.L14
 266              	.L16:
  88:.\dc_motor.c  ****         } else {
  89:.\dc_motor.c  ****             Center_Lift_DC_Motor_Direction_1_Write(1);
 267              		.loc 1 89 0
 268 00e4 0120     		movs	r0, #1
 269 00e6 FFF7FEFF 		bl	Center_Lift_DC_Motor_Direction_1_Write
 270              	.LVL28:
  90:.\dc_motor.c  ****             Center_Lift_DC_Motor_Direction_2_Write(1);
 271              		.loc 1 90 0
 272 00ea 0120     		movs	r0, #1
 273 00ec FFF7FEFF 		bl	Center_Lift_DC_Motor_Direction_2_Write
 274              	.LVL29:
 275              	.L14:
  91:.\dc_motor.c  ****         }
  92:.\dc_motor.c  ****     }
  93:.\dc_motor.c  ****     
  94:.\dc_motor.c  ****     if (dc_motor->id == SHOULDER_CAM_DC_MOTOR) {
 276              		.loc 1 94 0
 277 00f0 2378     		ldrb	r3, [r4]	@ zero_extendqisi2
 278 00f2 032B     		cmp	r3, #3
 279 00f4 17D1     		bne	.L4
  95:.\dc_motor.c  ****         if (pwm < 0) {
 280              		.loc 1 95 0
 281 00f6 002D     		cmp	r5, #0
 282 00f8 06DA     		bge	.L18
  96:.\dc_motor.c  ****             Shoulder_Cam_DC_Motor_Direction_1_Write(0);
 283              		.loc 1 96 0
 284 00fa 0020     		movs	r0, #0
 285 00fc FFF7FEFF 		bl	Shoulder_Cam_DC_Motor_Direction_1_Write
 286              	.LVL30:
  97:.\dc_motor.c  ****             Shoulder_Cam_DC_Motor_Direction_2_Write(1);
 287              		.loc 1 97 0
 288 0100 0120     		movs	r0, #1
 289 0102 FFF7FEFF 		bl	Shoulder_Cam_DC_Motor_Direction_2_Write
 290              	.LVL31:
 291 0106 38BD     		pop	{r3, r4, r5, pc}
 292              	.LVL32:
 293              	.L18:
  98:.\dc_motor.c  ****         } else if (pwm > 0) {
 294              		.loc 1 98 0
 295 0108 002D     		cmp	r5, #0
 296 010a 06DD     		ble	.L19
  99:.\dc_motor.c  ****             Shoulder_Cam_DC_Motor_Direction_1_Write(1);
 297              		.loc 1 99 0
 298 010c 0120     		movs	r0, #1
 299 010e FFF7FEFF 		bl	Shoulder_Cam_DC_Motor_Direction_1_Write
 300              	.LVL33:
ARM GAS  C:\Users\Michael\AppData\Local\Temp\ccGvDO2v.s 			page 8


 100:.\dc_motor.c  ****             Shoulder_Cam_DC_Motor_Direction_2_Write(0);
 301              		.loc 1 100 0
 302 0112 0020     		movs	r0, #0
 303 0114 FFF7FEFF 		bl	Shoulder_Cam_DC_Motor_Direction_2_Write
 304              	.LVL34:
 305 0118 38BD     		pop	{r3, r4, r5, pc}
 306              	.LVL35:
 307              	.L19:
 101:.\dc_motor.c  ****         } else {
 102:.\dc_motor.c  ****             Shoulder_Cam_DC_Motor_Direction_1_Write(1);
 308              		.loc 1 102 0
 309 011a 0120     		movs	r0, #1
 310 011c FFF7FEFF 		bl	Shoulder_Cam_DC_Motor_Direction_1_Write
 311              	.LVL36:
 103:.\dc_motor.c  ****             Shoulder_Cam_DC_Motor_Direction_2_Write(1);
 312              		.loc 1 103 0
 313 0120 0120     		movs	r0, #1
 314 0122 FFF7FEFF 		bl	Shoulder_Cam_DC_Motor_Direction_2_Write
 315              	.LVL37:
 316              	.L4:
 317 0126 38BD     		pop	{r3, r4, r5, pc}
 318              		.cfi_endproc
 319              	.LFE65:
 320              		.size	set_dc_motor_pwm, .-set_dc_motor_pwm
 321              		.global	DC_MOTOR_POS_TOLERANCE
 322              		.global	DC_MOTOR_SPEED_TOLERANCE
 323              		.global	NUM_DC_MOTORS
 324              		.section	.rodata
 325              		.align	2
 326              		.type	DC_MOTOR_POS_TOLERANCE, %object
 327              		.size	DC_MOTOR_POS_TOLERANCE, 4
 328              	DC_MOTOR_POS_TOLERANCE:
 329 0000 00000040 		.word	1073741824
 330              		.type	DC_MOTOR_SPEED_TOLERANCE, %object
 331              		.size	DC_MOTOR_SPEED_TOLERANCE, 4
 332              	DC_MOTOR_SPEED_TOLERANCE:
 333 0004 00000000 		.space	4
 334              		.type	NUM_DC_MOTORS, %object
 335              		.size	NUM_DC_MOTORS, 4
 336              	NUM_DC_MOTORS:
 337 0008 03000000 		.word	3
 338              		.text
 339              	.Letext0:
 340              		.file 2 "c:\\program files (x86)\\cypress\\psoc creator\\3.3\\psoc creator\\import\\gnu\\arm\\4.9.
 341              		.file 3 "c:\\program files (x86)\\cypress\\psoc creator\\3.3\\psoc creator\\import\\gnu\\arm\\4.9.
 342              		.file 4 "Generated_Source\\PSoC5/cytypes.h"
 343              		.file 5 ".\\dc_motor.h"
 344              		.file 6 "Generated_Source\\PSoC5/core_cm3.h"
 345              		.file 7 "Generated_Source\\PSoC5/Left_Drive_DC_Motor_PWM.h"
 346              		.file 8 "Generated_Source\\PSoC5/Right_Drive_DC_Motor_PWM.h"
 347              		.file 9 "Generated_Source\\PSoC5/Left_Drive_DC_Motor_Direction.h"
 348              		.file 10 "Generated_Source\\PSoC5/Right_Drive_DC_Motor_Direction.h"
 349              		.file 11 "Generated_Source\\PSoC5/Center_Lift_DC_Motor_Direction_1.h"
 350              		.file 12 "Generated_Source\\PSoC5/Center_Lift_DC_Motor_Direction_2.h"
 351              		.file 13 "Generated_Source\\PSoC5/Shoulder_Cam_DC_Motor_Direction_1.h"
 352              		.file 14 "<built-in>"
 353              		.file 15 "Generated_Source\\PSoC5/Shoulder_Cam_DC_Motor_Direction_2.h"
ARM GAS  C:\Users\Michael\AppData\Local\Temp\ccGvDO2v.s 			page 9

