ARM GAS  C:\Users\Michael\AppData\Local\Temp\cceznV4T.s 			page 1


   1              		.syntax unified
   2              		.cpu cortex-m3
   3              		.fpu softvfp
   4              		.eabi_attribute 20, 1
   5              		.eabi_attribute 21, 1
   6              		.eabi_attribute 23, 3
   7              		.eabi_attribute 24, 1
   8              		.eabi_attribute 25, 1
   9              		.eabi_attribute 26, 1
  10              		.eabi_attribute 30, 1
  11              		.eabi_attribute 34, 1
  12              		.eabi_attribute 18, 4
  13              		.thumb
  14              		.file	"rc_ch.c"
  15              		.text
  16              	.Ltext0:
  17              		.cfi_sections	.debug_frame
  18              		.section	.text.RC_Ch1_Timer_ISR_Handler,"ax",%progbits
  19              		.align	2
  20              		.global	RC_Ch1_Timer_ISR_Handler
  21              		.thumb
  22              		.thumb_func
  23              		.type	RC_Ch1_Timer_ISR_Handler, %function
  24              	RC_Ch1_Timer_ISR_Handler:
  25              	.LFB63:
  26              		.file 1 ".\\rc_ch.c"
   1:.\rc_ch.c     **** /* ========================================
   2:.\rc_ch.c     ****  *
   3:.\rc_ch.c     ****  * Copyright YOUR COMPANY, THE YEAR
   4:.\rc_ch.c     ****  * All Rights Reserved
   5:.\rc_ch.c     ****  * UNPUBLISHED, LICENSED SOFTWARE.
   6:.\rc_ch.c     ****  *
   7:.\rc_ch.c     ****  * CONFIDENTIAL AND PROPRIETARY INFORMATION
   8:.\rc_ch.c     ****  * WHICH IS THE PROPERTY OF your company.
   9:.\rc_ch.c     ****  *
  10:.\rc_ch.c     ****  * ========================================
  11:.\rc_ch.c     **** */
  12:.\rc_ch.c     **** #include "project.h"
  13:.\rc_ch.c     **** #include "milliseconds.h"
  14:.\rc_ch.c     **** #include "rc_ch.h"
  15:.\rc_ch.c     **** 
  16:.\rc_ch.c     **** const int RC_TIMER_PERIOD = 500000 - 1;
  17:.\rc_ch.c     **** const int RC_TIMER_MAX_VALUE = 45000;
  18:.\rc_ch.c     **** const int RC_TIMER_MID_VALUE = 36000;
  19:.\rc_ch.c     **** const int RC_TIMER_MIN_VALUE = 23500;
  20:.\rc_ch.c     **** const int RC_TIMER_MID_TOLERANCE = 600;
  21:.\rc_ch.c     **** const int RC_CONNECTION_TIMEOUT = 70;
  22:.\rc_ch.c     **** 
  23:.\rc_ch.c     **** const int RC_MAX_VALUE = 240;
  24:.\rc_ch.c     **** const int RC_MIN_VALUE = 0;
  25:.\rc_ch.c     **** 
  26:.\rc_ch.c     **** const int RC_CH1_MIN_VALUE = 25;
  27:.\rc_ch.c     **** const int RC_CH5_THRESHOLD_VALUE = 15;
  28:.\rc_ch.c     **** const int RC_CONVERTING_THRESHOLD_VALUE = 100;
  29:.\rc_ch.c     **** 
  30:.\rc_ch.c     **** static uint8 isr_rc_ch1_timer_int_flag;
  31:.\rc_ch.c     **** static uint8 isr_rc_ch2_timer_int_flag;
ARM GAS  C:\Users\Michael\AppData\Local\Temp\cceznV4T.s 			page 2


  32:.\rc_ch.c     **** static uint8 isr_rc_ch3_timer_int_flag;
  33:.\rc_ch.c     **** static uint8 isr_rc_ch4_timer_int_flag;
  34:.\rc_ch.c     **** static uint8 isr_rc_ch5_timer_int_flag;
  35:.\rc_ch.c     **** static volatile uint32 isr_rc_ch1_timer_count;
  36:.\rc_ch.c     **** static volatile uint32 isr_rc_ch2_timer_count;
  37:.\rc_ch.c     **** static volatile uint32 isr_rc_ch3_timer_count;
  38:.\rc_ch.c     **** static volatile uint32 isr_rc_ch4_timer_count;
  39:.\rc_ch.c     **** static volatile uint32 isr_rc_ch5_timer_count;
  40:.\rc_ch.c     **** 
  41:.\rc_ch.c     **** // interrupt service routines to read the RC timer registers 
  42:.\rc_ch.c     **** // and count the number of high values
  43:.\rc_ch.c     **** CY_ISR(RC_Ch1_Timer_ISR_Handler)
  44:.\rc_ch.c     **** {
  27              		.loc 1 44 0
  28              		.cfi_startproc
  29              		@ args = 0, pretend = 0, frame = 0
  30              		@ frame_needed = 0, uses_anonymous_args = 0
  31 0000 08B5     		push	{r3, lr}
  32              		.cfi_def_cfa_offset 8
  33              		.cfi_offset 3, -8
  34              		.cfi_offset 14, -4
  45:.\rc_ch.c     ****     isr_rc_ch1_timer_int_flag = RC_Ch1_Timer_ReadStatusRegister();    
  35              		.loc 1 45 0
  36 0002 FFF7FEFF 		bl	RC_Ch1_Timer_ReadStatusRegister
  37              	.LVL0:
  38 0006 0D4B     		ldr	r3, .L5
  39 0008 1870     		strb	r0, [r3]
  46:.\rc_ch.c     ****     if (isr_rc_ch1_timer_int_flag & RC_Ch1_Timer_STATUS_CAPTURE)
  40              		.loc 1 46 0
  41 000a 10F0020F 		tst	r0, #2
  42 000e 07D0     		beq	.L2
  47:.\rc_ch.c     ****         isr_rc_ch1_timer_count = RC_TIMER_PERIOD - RC_Ch1_Timer_ReadCapture();    
  43              		.loc 1 47 0
  44 0010 FFF7FEFF 		bl	RC_Ch1_Timer_ReadCapture
  45              	.LVL1:
  46 0014 C0F5F420 		rsb	r0, r0, #499712
  47 0018 00F21F10 		addw	r0, r0, #287
  48 001c 074B     		ldr	r3, .L5
  49 001e 5860     		str	r0, [r3, #4]
  50              	.L2:
  48:.\rc_ch.c     ****     if (isr_rc_ch1_timer_int_flag & RC_Ch1_Timer_STATUS_TC)
  51              		.loc 1 48 0
  52 0020 064B     		ldr	r3, .L5
  53 0022 1B78     		ldrb	r3, [r3]	@ zero_extendqisi2
  54 0024 13F0010F 		tst	r3, #1
  55 0028 02D0     		beq	.L3
  49:.\rc_ch.c     ****         isr_rc_ch1_timer_count = 0;
  56              		.loc 1 49 0
  57 002a 0022     		movs	r2, #0
  58 002c 034B     		ldr	r3, .L5
  59 002e 5A60     		str	r2, [r3, #4]
  60              	.L3:
  50:.\rc_ch.c     ****     
  51:.\rc_ch.c     ****     RC_Ch1_Timer_Stop();
  61              		.loc 1 51 0
  62 0030 FFF7FEFF 		bl	RC_Ch1_Timer_Stop
  63              	.LVL2:
ARM GAS  C:\Users\Michael\AppData\Local\Temp\cceznV4T.s 			page 3


  52:.\rc_ch.c     ****     RC_Ch1_Timer_WriteCounter(RC_TIMER_PERIOD);
  64              		.loc 1 52 0
  65 0034 0248     		ldr	r0, .L5+4
  66 0036 FFF7FEFF 		bl	RC_Ch1_Timer_WriteCounter
  67              	.LVL3:
  68 003a 08BD     		pop	{r3, pc}
  69              	.L6:
  70              		.align	2
  71              	.L5:
  72 003c 00000000 		.word	.LANCHOR0
  73 0040 1FA10700 		.word	499999
  74              		.cfi_endproc
  75              	.LFE63:
  76              		.size	RC_Ch1_Timer_ISR_Handler, .-RC_Ch1_Timer_ISR_Handler
  77              		.section	.text.RC_Ch2_Timer_ISR_Handler,"ax",%progbits
  78              		.align	2
  79              		.global	RC_Ch2_Timer_ISR_Handler
  80              		.thumb
  81              		.thumb_func
  82              		.type	RC_Ch2_Timer_ISR_Handler, %function
  83              	RC_Ch2_Timer_ISR_Handler:
  84              	.LFB64:
  53:.\rc_ch.c     **** }
  54:.\rc_ch.c     **** 
  55:.\rc_ch.c     **** CY_ISR(RC_Ch2_Timer_ISR_Handler)
  56:.\rc_ch.c     **** {
  85              		.loc 1 56 0
  86              		.cfi_startproc
  87              		@ args = 0, pretend = 0, frame = 0
  88              		@ frame_needed = 0, uses_anonymous_args = 0
  89 0000 08B5     		push	{r3, lr}
  90              		.cfi_def_cfa_offset 8
  91              		.cfi_offset 3, -8
  92              		.cfi_offset 14, -4
  57:.\rc_ch.c     ****     isr_rc_ch2_timer_int_flag = RC_Ch2_Timer_ReadStatusRegister();    
  93              		.loc 1 57 0
  94 0002 FFF7FEFF 		bl	RC_Ch2_Timer_ReadStatusRegister
  95              	.LVL4:
  96 0006 0D4B     		ldr	r3, .L11
  97 0008 1872     		strb	r0, [r3, #8]
  58:.\rc_ch.c     ****     if (isr_rc_ch2_timer_int_flag & RC_Ch2_Timer_STATUS_CAPTURE)
  98              		.loc 1 58 0
  99 000a 10F0020F 		tst	r0, #2
 100 000e 07D0     		beq	.L8
  59:.\rc_ch.c     ****         isr_rc_ch2_timer_count = RC_TIMER_PERIOD - RC_Ch2_Timer_ReadCapture();    
 101              		.loc 1 59 0
 102 0010 FFF7FEFF 		bl	RC_Ch2_Timer_ReadCapture
 103              	.LVL5:
 104 0014 C0F5F420 		rsb	r0, r0, #499712
 105 0018 00F21F10 		addw	r0, r0, #287
 106 001c 074B     		ldr	r3, .L11
 107 001e D860     		str	r0, [r3, #12]
 108              	.L8:
  60:.\rc_ch.c     ****     if (isr_rc_ch2_timer_int_flag & RC_Ch2_Timer_STATUS_TC)
 109              		.loc 1 60 0
 110 0020 064B     		ldr	r3, .L11
 111 0022 1B7A     		ldrb	r3, [r3, #8]	@ zero_extendqisi2
ARM GAS  C:\Users\Michael\AppData\Local\Temp\cceznV4T.s 			page 4


 112 0024 13F0010F 		tst	r3, #1
 113 0028 02D0     		beq	.L9
  61:.\rc_ch.c     ****         isr_rc_ch2_timer_count = 0;
 114              		.loc 1 61 0
 115 002a 0022     		movs	r2, #0
 116 002c 034B     		ldr	r3, .L11
 117 002e DA60     		str	r2, [r3, #12]
 118              	.L9:
  62:.\rc_ch.c     ****     
  63:.\rc_ch.c     ****     RC_Ch2_Timer_Stop();
 119              		.loc 1 63 0
 120 0030 FFF7FEFF 		bl	RC_Ch2_Timer_Stop
 121              	.LVL6:
  64:.\rc_ch.c     ****     RC_Ch2_Timer_WriteCounter(RC_TIMER_PERIOD);
 122              		.loc 1 64 0
 123 0034 0248     		ldr	r0, .L11+4
 124 0036 FFF7FEFF 		bl	RC_Ch2_Timer_WriteCounter
 125              	.LVL7:
 126 003a 08BD     		pop	{r3, pc}
 127              	.L12:
 128              		.align	2
 129              	.L11:
 130 003c 00000000 		.word	.LANCHOR0
 131 0040 1FA10700 		.word	499999
 132              		.cfi_endproc
 133              	.LFE64:
 134              		.size	RC_Ch2_Timer_ISR_Handler, .-RC_Ch2_Timer_ISR_Handler
 135              		.section	.text.RC_Ch3_Timer_ISR_Handler,"ax",%progbits
 136              		.align	2
 137              		.global	RC_Ch3_Timer_ISR_Handler
 138              		.thumb
 139              		.thumb_func
 140              		.type	RC_Ch3_Timer_ISR_Handler, %function
 141              	RC_Ch3_Timer_ISR_Handler:
 142              	.LFB65:
  65:.\rc_ch.c     **** }
  66:.\rc_ch.c     **** 
  67:.\rc_ch.c     **** CY_ISR(RC_Ch3_Timer_ISR_Handler)
  68:.\rc_ch.c     **** {
 143              		.loc 1 68 0
 144              		.cfi_startproc
 145              		@ args = 0, pretend = 0, frame = 0
 146              		@ frame_needed = 0, uses_anonymous_args = 0
 147 0000 08B5     		push	{r3, lr}
 148              		.cfi_def_cfa_offset 8
 149              		.cfi_offset 3, -8
 150              		.cfi_offset 14, -4
  69:.\rc_ch.c     ****     isr_rc_ch3_timer_int_flag = RC_Ch3_Timer_ReadStatusRegister();    
 151              		.loc 1 69 0
 152 0002 FFF7FEFF 		bl	RC_Ch3_Timer_ReadStatusRegister
 153              	.LVL8:
 154 0006 0D4B     		ldr	r3, .L17
 155 0008 1874     		strb	r0, [r3, #16]
  70:.\rc_ch.c     ****     if (isr_rc_ch3_timer_int_flag & RC_Ch3_Timer_STATUS_CAPTURE)
 156              		.loc 1 70 0
 157 000a 10F0020F 		tst	r0, #2
 158 000e 07D0     		beq	.L14
ARM GAS  C:\Users\Michael\AppData\Local\Temp\cceznV4T.s 			page 5


  71:.\rc_ch.c     ****         isr_rc_ch3_timer_count = RC_TIMER_PERIOD - RC_Ch3_Timer_ReadCapture();    
 159              		.loc 1 71 0
 160 0010 FFF7FEFF 		bl	RC_Ch3_Timer_ReadCapture
 161              	.LVL9:
 162 0014 C0F5F420 		rsb	r0, r0, #499712
 163 0018 00F21F10 		addw	r0, r0, #287
 164 001c 074B     		ldr	r3, .L17
 165 001e 5861     		str	r0, [r3, #20]
 166              	.L14:
  72:.\rc_ch.c     ****     if (isr_rc_ch3_timer_int_flag & RC_Ch3_Timer_STATUS_TC)
 167              		.loc 1 72 0
 168 0020 064B     		ldr	r3, .L17
 169 0022 1B7C     		ldrb	r3, [r3, #16]	@ zero_extendqisi2
 170 0024 13F0010F 		tst	r3, #1
 171 0028 02D0     		beq	.L15
  73:.\rc_ch.c     ****         isr_rc_ch3_timer_count = 0;
 172              		.loc 1 73 0
 173 002a 0022     		movs	r2, #0
 174 002c 034B     		ldr	r3, .L17
 175 002e 5A61     		str	r2, [r3, #20]
 176              	.L15:
  74:.\rc_ch.c     ****     
  75:.\rc_ch.c     ****     RC_Ch3_Timer_Stop();
 177              		.loc 1 75 0
 178 0030 FFF7FEFF 		bl	RC_Ch3_Timer_Stop
 179              	.LVL10:
  76:.\rc_ch.c     ****     RC_Ch3_Timer_WriteCounter(RC_TIMER_PERIOD);
 180              		.loc 1 76 0
 181 0034 0248     		ldr	r0, .L17+4
 182 0036 FFF7FEFF 		bl	RC_Ch3_Timer_WriteCounter
 183              	.LVL11:
 184 003a 08BD     		pop	{r3, pc}
 185              	.L18:
 186              		.align	2
 187              	.L17:
 188 003c 00000000 		.word	.LANCHOR0
 189 0040 1FA10700 		.word	499999
 190              		.cfi_endproc
 191              	.LFE65:
 192              		.size	RC_Ch3_Timer_ISR_Handler, .-RC_Ch3_Timer_ISR_Handler
 193              		.section	.text.RC_Ch4_Timer_ISR_Handler,"ax",%progbits
 194              		.align	2
 195              		.global	RC_Ch4_Timer_ISR_Handler
 196              		.thumb
 197              		.thumb_func
 198              		.type	RC_Ch4_Timer_ISR_Handler, %function
 199              	RC_Ch4_Timer_ISR_Handler:
 200              	.LFB66:
  77:.\rc_ch.c     **** }
  78:.\rc_ch.c     **** 
  79:.\rc_ch.c     **** CY_ISR(RC_Ch4_Timer_ISR_Handler)
  80:.\rc_ch.c     **** {
 201              		.loc 1 80 0
 202              		.cfi_startproc
 203              		@ args = 0, pretend = 0, frame = 0
 204              		@ frame_needed = 0, uses_anonymous_args = 0
 205 0000 08B5     		push	{r3, lr}
ARM GAS  C:\Users\Michael\AppData\Local\Temp\cceznV4T.s 			page 6


 206              		.cfi_def_cfa_offset 8
 207              		.cfi_offset 3, -8
 208              		.cfi_offset 14, -4
  81:.\rc_ch.c     ****     isr_rc_ch4_timer_int_flag = RC_Ch4_Timer_ReadStatusRegister();    
 209              		.loc 1 81 0
 210 0002 FFF7FEFF 		bl	RC_Ch4_Timer_ReadStatusRegister
 211              	.LVL12:
 212 0006 0D4B     		ldr	r3, .L23
 213 0008 1876     		strb	r0, [r3, #24]
  82:.\rc_ch.c     ****     if (isr_rc_ch4_timer_int_flag & RC_Ch4_Timer_STATUS_CAPTURE)
 214              		.loc 1 82 0
 215 000a 10F0020F 		tst	r0, #2
 216 000e 07D0     		beq	.L20
  83:.\rc_ch.c     ****         isr_rc_ch4_timer_count = RC_TIMER_PERIOD - RC_Ch4_Timer_ReadCapture();    
 217              		.loc 1 83 0
 218 0010 FFF7FEFF 		bl	RC_Ch4_Timer_ReadCapture
 219              	.LVL13:
 220 0014 C0F5F420 		rsb	r0, r0, #499712
 221 0018 00F21F10 		addw	r0, r0, #287
 222 001c 074B     		ldr	r3, .L23
 223 001e D861     		str	r0, [r3, #28]
 224              	.L20:
  84:.\rc_ch.c     ****     if (isr_rc_ch4_timer_int_flag & RC_Ch4_Timer_STATUS_TC)
 225              		.loc 1 84 0
 226 0020 064B     		ldr	r3, .L23
 227 0022 1B7E     		ldrb	r3, [r3, #24]	@ zero_extendqisi2
 228 0024 13F0010F 		tst	r3, #1
 229 0028 02D0     		beq	.L21
  85:.\rc_ch.c     ****         isr_rc_ch4_timer_count = 0;
 230              		.loc 1 85 0
 231 002a 0022     		movs	r2, #0
 232 002c 034B     		ldr	r3, .L23
 233 002e DA61     		str	r2, [r3, #28]
 234              	.L21:
  86:.\rc_ch.c     ****     
  87:.\rc_ch.c     ****     RC_Ch4_Timer_Stop();
 235              		.loc 1 87 0
 236 0030 FFF7FEFF 		bl	RC_Ch4_Timer_Stop
 237              	.LVL14:
  88:.\rc_ch.c     ****     RC_Ch4_Timer_WriteCounter(RC_TIMER_PERIOD);
 238              		.loc 1 88 0
 239 0034 0248     		ldr	r0, .L23+4
 240 0036 FFF7FEFF 		bl	RC_Ch4_Timer_WriteCounter
 241              	.LVL15:
 242 003a 08BD     		pop	{r3, pc}
 243              	.L24:
 244              		.align	2
 245              	.L23:
 246 003c 00000000 		.word	.LANCHOR0
 247 0040 1FA10700 		.word	499999
 248              		.cfi_endproc
 249              	.LFE66:
 250              		.size	RC_Ch4_Timer_ISR_Handler, .-RC_Ch4_Timer_ISR_Handler
 251              		.section	.text.RC_Ch5_Timer_ISR_Handler,"ax",%progbits
 252              		.align	2
 253              		.global	RC_Ch5_Timer_ISR_Handler
 254              		.thumb
ARM GAS  C:\Users\Michael\AppData\Local\Temp\cceznV4T.s 			page 7


 255              		.thumb_func
 256              		.type	RC_Ch5_Timer_ISR_Handler, %function
 257              	RC_Ch5_Timer_ISR_Handler:
 258              	.LFB67:
  89:.\rc_ch.c     **** }
  90:.\rc_ch.c     **** 
  91:.\rc_ch.c     **** CY_ISR(RC_Ch5_Timer_ISR_Handler)
  92:.\rc_ch.c     **** {
 259              		.loc 1 92 0
 260              		.cfi_startproc
 261              		@ args = 0, pretend = 0, frame = 0
 262              		@ frame_needed = 0, uses_anonymous_args = 0
 263 0000 08B5     		push	{r3, lr}
 264              		.cfi_def_cfa_offset 8
 265              		.cfi_offset 3, -8
 266              		.cfi_offset 14, -4
  93:.\rc_ch.c     ****     isr_rc_ch5_timer_int_flag = RC_Ch5_Timer_ReadStatusRegister();    
 267              		.loc 1 93 0
 268 0002 FFF7FEFF 		bl	RC_Ch5_Timer_ReadStatusRegister
 269              	.LVL16:
 270 0006 0E4B     		ldr	r3, .L29
 271 0008 83F82000 		strb	r0, [r3, #32]
  94:.\rc_ch.c     ****     if (isr_rc_ch5_timer_int_flag & RC_Ch5_Timer_STATUS_CAPTURE)
 272              		.loc 1 94 0
 273 000c 10F0020F 		tst	r0, #2
 274 0010 07D0     		beq	.L26
  95:.\rc_ch.c     ****         isr_rc_ch5_timer_count = RC_TIMER_PERIOD - RC_Ch5_Timer_ReadCapture();    
 275              		.loc 1 95 0
 276 0012 FFF7FEFF 		bl	RC_Ch5_Timer_ReadCapture
 277              	.LVL17:
 278 0016 C0F5F420 		rsb	r0, r0, #499712
 279 001a 00F21F10 		addw	r0, r0, #287
 280 001e 084B     		ldr	r3, .L29
 281 0020 5862     		str	r0, [r3, #36]
 282              	.L26:
  96:.\rc_ch.c     ****     if (isr_rc_ch5_timer_int_flag & RC_Ch5_Timer_STATUS_TC)
 283              		.loc 1 96 0
 284 0022 074B     		ldr	r3, .L29
 285 0024 93F82030 		ldrb	r3, [r3, #32]	@ zero_extendqisi2
 286 0028 13F0010F 		tst	r3, #1
 287 002c 02D0     		beq	.L27
  97:.\rc_ch.c     ****         isr_rc_ch5_timer_count = 0;
 288              		.loc 1 97 0
 289 002e 0022     		movs	r2, #0
 290 0030 034B     		ldr	r3, .L29
 291 0032 5A62     		str	r2, [r3, #36]
 292              	.L27:
  98:.\rc_ch.c     ****     
  99:.\rc_ch.c     ****     RC_Ch5_Timer_Stop();
 293              		.loc 1 99 0
 294 0034 FFF7FEFF 		bl	RC_Ch5_Timer_Stop
 295              	.LVL18:
 100:.\rc_ch.c     ****     RC_Ch5_Timer_WriteCounter(RC_TIMER_PERIOD);
 296              		.loc 1 100 0
 297 0038 0248     		ldr	r0, .L29+4
 298 003a FFF7FEFF 		bl	RC_Ch5_Timer_WriteCounter
 299              	.LVL19:
ARM GAS  C:\Users\Michael\AppData\Local\Temp\cceznV4T.s 			page 8


 300 003e 08BD     		pop	{r3, pc}
 301              	.L30:
 302              		.align	2
 303              	.L29:
 304 0040 00000000 		.word	.LANCHOR0
 305 0044 1FA10700 		.word	499999
 306              		.cfi_endproc
 307              	.LFE67:
 308              		.size	RC_Ch5_Timer_ISR_Handler, .-RC_Ch5_Timer_ISR_Handler
 309              		.section	.text.init_rc_channels,"ax",%progbits
 310              		.align	2
 311              		.global	init_rc_channels
 312              		.thumb
 313              		.thumb_func
 314              		.type	init_rc_channels, %function
 315              	init_rc_channels:
 316              	.LFB68:
 101:.\rc_ch.c     **** }
 102:.\rc_ch.c     **** 
 103:.\rc_ch.c     **** // initialize all PSoC components for reading RC channels
 104:.\rc_ch.c     **** void init_rc_channels() {
 317              		.loc 1 104 0
 318              		.cfi_startproc
 319              		@ args = 0, pretend = 0, frame = 0
 320              		@ frame_needed = 0, uses_anonymous_args = 0
 321 0000 08B5     		push	{r3, lr}
 322              		.cfi_def_cfa_offset 8
 323              		.cfi_offset 3, -8
 324              		.cfi_offset 14, -4
 105:.\rc_ch.c     ****     RC_Ch1_Timer_Interrupt_StartEx(RC_Ch1_Timer_ISR_Handler);
 325              		.loc 1 105 0
 326 0002 0D48     		ldr	r0, .L33
 327 0004 FFF7FEFF 		bl	RC_Ch1_Timer_Interrupt_StartEx
 328              	.LVL20:
 106:.\rc_ch.c     ****     RC_Ch1_Timer_Start();
 329              		.loc 1 106 0
 330 0008 FFF7FEFF 		bl	RC_Ch1_Timer_Start
 331              	.LVL21:
 107:.\rc_ch.c     ****     RC_Ch2_Timer_Interrupt_StartEx(RC_Ch2_Timer_ISR_Handler);
 332              		.loc 1 107 0
 333 000c 0B48     		ldr	r0, .L33+4
 334 000e FFF7FEFF 		bl	RC_Ch2_Timer_Interrupt_StartEx
 335              	.LVL22:
 108:.\rc_ch.c     ****     RC_Ch2_Timer_Start();
 336              		.loc 1 108 0
 337 0012 FFF7FEFF 		bl	RC_Ch2_Timer_Start
 338              	.LVL23:
 109:.\rc_ch.c     ****     RC_Ch3_Timer_Interrupt_StartEx(RC_Ch3_Timer_ISR_Handler);
 339              		.loc 1 109 0
 340 0016 0A48     		ldr	r0, .L33+8
 341 0018 FFF7FEFF 		bl	RC_Ch3_Timer_Interrupt_StartEx
 342              	.LVL24:
 110:.\rc_ch.c     ****     RC_Ch3_Timer_Start();
 343              		.loc 1 110 0
 344 001c FFF7FEFF 		bl	RC_Ch3_Timer_Start
 345              	.LVL25:
 111:.\rc_ch.c     ****     RC_Ch4_Timer_Interrupt_StartEx(RC_Ch4_Timer_ISR_Handler);
ARM GAS  C:\Users\Michael\AppData\Local\Temp\cceznV4T.s 			page 9


 346              		.loc 1 111 0
 347 0020 0848     		ldr	r0, .L33+12
 348 0022 FFF7FEFF 		bl	RC_Ch4_Timer_Interrupt_StartEx
 349              	.LVL26:
 112:.\rc_ch.c     ****     RC_Ch4_Timer_Start();
 350              		.loc 1 112 0
 351 0026 FFF7FEFF 		bl	RC_Ch4_Timer_Start
 352              	.LVL27:
 113:.\rc_ch.c     ****     RC_Ch5_Timer_Interrupt_StartEx(RC_Ch5_Timer_ISR_Handler);
 353              		.loc 1 113 0
 354 002a 0748     		ldr	r0, .L33+16
 355 002c FFF7FEFF 		bl	RC_Ch5_Timer_Interrupt_StartEx
 356              	.LVL28:
 114:.\rc_ch.c     ****     RC_Ch5_Timer_Start();
 357              		.loc 1 114 0
 358 0030 FFF7FEFF 		bl	RC_Ch5_Timer_Start
 359              	.LVL29:
 360 0034 08BD     		pop	{r3, pc}
 361              	.L34:
 362 0036 00BF     		.align	2
 363              	.L33:
 364 0038 00000000 		.word	RC_Ch1_Timer_ISR_Handler
 365 003c 00000000 		.word	RC_Ch2_Timer_ISR_Handler
 366 0040 00000000 		.word	RC_Ch3_Timer_ISR_Handler
 367 0044 00000000 		.word	RC_Ch4_Timer_ISR_Handler
 368 0048 00000000 		.word	RC_Ch5_Timer_ISR_Handler
 369              		.cfi_endproc
 370              	.LFE68:
 371              		.size	init_rc_channels, .-init_rc_channels
 372              		.section	.text.construct_rc_ch,"ax",%progbits
 373              		.align	2
 374              		.global	construct_rc_ch
 375              		.thumb
 376              		.thumb_func
 377              		.type	construct_rc_ch, %function
 378              	construct_rc_ch:
 379              	.LFB69:
 115:.\rc_ch.c     **** }
 116:.\rc_ch.c     **** 
 117:.\rc_ch.c     **** // construct an RC channel struct object
 118:.\rc_ch.c     **** void construct_rc_ch(RC_CH* rc_ch, uint8 ch_number) {
 380              		.loc 1 118 0
 381              		.cfi_startproc
 382              		@ args = 0, pretend = 0, frame = 0
 383              		@ frame_needed = 0, uses_anonymous_args = 0
 384              		@ link register save eliminated.
 385              	.LVL30:
 119:.\rc_ch.c     ****     rc_ch->ch_number = ch_number;
 386              		.loc 1 119 0
 387 0000 0170     		strb	r1, [r0]
 120:.\rc_ch.c     ****     rc_ch->connected = 0;
 388              		.loc 1 120 0
 389 0002 0023     		movs	r3, #0
 390 0004 4370     		strb	r3, [r0, #1]
 121:.\rc_ch.c     ****     rc_ch->value = 0;
 391              		.loc 1 121 0
 392 0006 8381     		strh	r3, [r0, #12]	@ movhi
ARM GAS  C:\Users\Michael\AppData\Local\Temp\cceznV4T.s 			page 10


 122:.\rc_ch.c     ****     rc_ch->last_connected = 0;
 393              		.loc 1 122 0
 394 0008 4360     		str	r3, [r0, #4]
 123:.\rc_ch.c     ****     rc_ch->last_timer_count = 0;
 395              		.loc 1 123 0
 396 000a 8360     		str	r3, [r0, #8]
 397 000c 7047     		bx	lr
 398              		.cfi_endproc
 399              	.LFE69:
 400              		.size	construct_rc_ch, .-construct_rc_ch
 401 000e 00BF     		.section	.text.get_rc_ch_value,"ax",%progbits
 402              		.align	2
 403              		.global	get_rc_ch_value
 404              		.thumb
 405              		.thumb_func
 406              		.type	get_rc_ch_value, %function
 407              	get_rc_ch_value:
 408              	.LFB70:
 124:.\rc_ch.c     **** }
 125:.\rc_ch.c     **** 
 126:.\rc_ch.c     **** // get the duty cycle count of an RC channel
 127:.\rc_ch.c     **** void get_rc_ch_value(RC_CH* rc_ch) {
 409              		.loc 1 127 0
 410              		.cfi_startproc
 411              		@ args = 0, pretend = 0, frame = 0
 412              		@ frame_needed = 0, uses_anonymous_args = 0
 413              	.LVL31:
 414 0000 70B5     		push	{r4, r5, r6, lr}
 415              		.cfi_def_cfa_offset 16
 416              		.cfi_offset 4, -16
 417              		.cfi_offset 5, -12
 418              		.cfi_offset 6, -8
 419              		.cfi_offset 14, -4
 420 0002 0446     		mov	r4, r0
 128:.\rc_ch.c     ****     uint8 isr_rc_timer_int_flag = rc_ch->ch_number == 1 ? isr_rc_ch1_timer_int_flag :
 421              		.loc 1 128 0
 422 0004 0378     		ldrb	r3, [r0]	@ zero_extendqisi2
 423 0006 012B     		cmp	r3, #1
 424 0008 12D0     		beq	.L37
 425              		.loc 1 128 0 is_stmt 0 discriminator 1
 426 000a 022B     		cmp	r3, #2
 427 000c 0DD0     		beq	.L38
 428              		.loc 1 128 0 discriminator 3
 429 000e 032B     		cmp	r3, #3
 430 0010 08D0     		beq	.L39
 431              		.loc 1 128 0 discriminator 5
 432 0012 042B     		cmp	r3, #4
 433 0014 02D1     		bne	.L40
 434              		.loc 1 128 0 discriminator 7
 435 0016 4F4A     		ldr	r2, .L76
 436 0018 167E     		ldrb	r6, [r2, #24]	@ zero_extendqisi2
 437 001a 0BE0     		b	.L44
 438              	.L40:
 439              		.loc 1 128 0 discriminator 8
 440 001c 4D4A     		ldr	r2, .L76
 441 001e 92F82060 		ldrb	r6, [r2, #32]	@ zero_extendqisi2
 442 0022 07E0     		b	.L44
ARM GAS  C:\Users\Michael\AppData\Local\Temp\cceznV4T.s 			page 11


 443              	.L39:
 444              		.loc 1 128 0 discriminator 6
 445 0024 4B4A     		ldr	r2, .L76
 446 0026 167C     		ldrb	r6, [r2, #16]	@ zero_extendqisi2
 447 0028 04E0     		b	.L44
 448              	.L38:
 449              		.loc 1 128 0 discriminator 4
 450 002a 4A4A     		ldr	r2, .L76
 451 002c 167A     		ldrb	r6, [r2, #8]	@ zero_extendqisi2
 452 002e 01E0     		b	.L44
 453              	.L37:
 454              		.loc 1 128 0 discriminator 2
 455 0030 484A     		ldr	r2, .L76
 456 0032 1678     		ldrb	r6, [r2]	@ zero_extendqisi2
 457              	.L44:
 458              	.LVL32:
 129:.\rc_ch.c     ****                                   rc_ch->ch_number == 2 ? isr_rc_ch2_timer_int_flag :
 130:.\rc_ch.c     ****                                   rc_ch->ch_number == 3 ? isr_rc_ch3_timer_int_flag :
 131:.\rc_ch.c     ****                                   rc_ch->ch_number == 4 ? isr_rc_ch4_timer_int_flag :
 132:.\rc_ch.c     ****                                                           isr_rc_ch5_timer_int_flag;
 133:.\rc_ch.c     ****     uint32 isr_rc_timer_count = rc_ch->ch_number == 1 ? isr_rc_ch1_timer_count :
 459              		.loc 1 133 0 is_stmt 1 discriminator 16
 460 0034 012B     		cmp	r3, #1
 461 0036 11D0     		beq	.L45
 134:.\rc_ch.c     ****                                 rc_ch->ch_number == 2 ? isr_rc_ch2_timer_count :
 462              		.loc 1 134 0
 463 0038 022B     		cmp	r3, #2
 464 003a 0CD0     		beq	.L46
 135:.\rc_ch.c     ****                                 rc_ch->ch_number == 3 ? isr_rc_ch3_timer_count :
 465              		.loc 1 135 0
 466 003c 032B     		cmp	r3, #3
 467 003e 07D0     		beq	.L47
 136:.\rc_ch.c     ****                                 rc_ch->ch_number == 4 ? isr_rc_ch4_timer_count :
 468              		.loc 1 136 0
 469 0040 042B     		cmp	r3, #4
 470 0042 02D1     		bne	.L48
 471              		.loc 1 136 0 is_stmt 0 discriminator 1
 472 0044 434A     		ldr	r2, .L76
 473 0046 D569     		ldr	r5, [r2, #28]
 474 0048 0AE0     		b	.L52
 475              	.L48:
 476              		.loc 1 136 0 discriminator 2
 477 004a 424A     		ldr	r2, .L76
 478 004c 556A     		ldr	r5, [r2, #36]
 479 004e 07E0     		b	.L52
 480              	.L47:
 135:.\rc_ch.c     ****                                 rc_ch->ch_number == 3 ? isr_rc_ch3_timer_count :
 481              		.loc 1 135 0 is_stmt 1 discriminator 1
 482 0050 404A     		ldr	r2, .L76
 483 0052 5569     		ldr	r5, [r2, #20]
 484 0054 04E0     		b	.L52
 485              	.L46:
 134:.\rc_ch.c     ****                                 rc_ch->ch_number == 2 ? isr_rc_ch2_timer_count :
 486              		.loc 1 134 0 discriminator 1
 487 0056 3F4A     		ldr	r2, .L76
 488 0058 D568     		ldr	r5, [r2, #12]
 489 005a 01E0     		b	.L52
ARM GAS  C:\Users\Michael\AppData\Local\Temp\cceznV4T.s 			page 12


 490              	.L45:
 133:.\rc_ch.c     ****                                 rc_ch->ch_number == 2 ? isr_rc_ch2_timer_count :
 491              		.loc 1 133 0 discriminator 1
 492 005c 3D4A     		ldr	r2, .L76
 493 005e 5568     		ldr	r5, [r2, #4]
 494              	.L52:
 495              	.LVL33:
 137:.\rc_ch.c     ****                                                         isr_rc_ch5_timer_count;
 138:.\rc_ch.c     ****     
 139:.\rc_ch.c     ****     int16 ch_value = 0;
 140:.\rc_ch.c     ****     uint8 rc_ch_read_value = rc_ch->ch_number == 1 ? RC_Ch1_Read() :
 496              		.loc 1 140 0 discriminator 3
 497 0060 012B     		cmp	r3, #1
 498 0062 02D1     		bne	.L53
 499              		.loc 1 140 0 is_stmt 0 discriminator 1
 500 0064 FFF7FEFF 		bl	RC_Ch1_Read
 501              	.LVL34:
 502 0068 10E0     		b	.L54
 503              	.LVL35:
 504              	.L53:
 505              		.loc 1 140 0 discriminator 2
 506 006a 022B     		cmp	r3, #2
 507 006c 02D1     		bne	.L55
 508              		.loc 1 140 0 discriminator 4
 509 006e FFF7FEFF 		bl	RC_Ch2_Read
 510              	.LVL36:
 511 0072 0BE0     		b	.L54
 512              	.LVL37:
 513              	.L55:
 514              		.loc 1 140 0 discriminator 5
 515 0074 032B     		cmp	r3, #3
 516 0076 02D1     		bne	.L57
 517              		.loc 1 140 0 discriminator 7
 518 0078 FFF7FEFF 		bl	RC_Ch3_Read
 519              	.LVL38:
 520 007c 06E0     		b	.L54
 521              	.LVL39:
 522              	.L57:
 523              		.loc 1 140 0 discriminator 8
 524 007e 042B     		cmp	r3, #4
 525 0080 02D1     		bne	.L59
 526              		.loc 1 140 0 discriminator 10
 527 0082 FFF7FEFF 		bl	RC_Ch4_Read
 528              	.LVL40:
 529 0086 01E0     		b	.L54
 530              	.LVL41:
 531              	.L59:
 532              		.loc 1 140 0 discriminator 11
 533 0088 FFF7FEFF 		bl	RC_Ch5_Read
 534              	.LVL42:
 535              	.L54:
 141:.\rc_ch.c     ****                              rc_ch->ch_number == 2 ? RC_Ch2_Read() :
 142:.\rc_ch.c     ****                              rc_ch->ch_number == 3 ? RC_Ch3_Read() :
 143:.\rc_ch.c     ****                              rc_ch->ch_number == 4 ? RC_Ch4_Read() :
 144:.\rc_ch.c     ****                                                      RC_Ch5_Read();
 145:.\rc_ch.c     ****     
 146:.\rc_ch.c     ****     // failsafe so that if the rc channel is disconnected, i.e. no value for a while
ARM GAS  C:\Users\Michael\AppData\Local\Temp\cceznV4T.s 			page 13


 147:.\rc_ch.c     ****     // shut off the channel so the motor stops running and nobody dies
 148:.\rc_ch.c     ****     if (rc_ch_read_value) {
 536              		.loc 1 148 0 is_stmt 1 discriminator 16
 537 008c 28B1     		cbz	r0, .L61
 149:.\rc_ch.c     ****         rc_ch->last_connected = MILLISECONDS;
 538              		.loc 1 149 0
 539 008e 324B     		ldr	r3, .L76+4
 540 0090 1B68     		ldr	r3, [r3]
 541 0092 6360     		str	r3, [r4, #4]
 150:.\rc_ch.c     ****         rc_ch->connected = 1;
 542              		.loc 1 150 0
 543 0094 0123     		movs	r3, #1
 544 0096 6370     		strb	r3, [r4, #1]
 545 0098 07E0     		b	.L62
 546              	.L61:
 151:.\rc_ch.c     ****     } else {
 152:.\rc_ch.c     ****         if (MILLISECONDS - rc_ch->last_connected > RC_CONNECTION_TIMEOUT) {
 547              		.loc 1 152 0
 548 009a 2F4B     		ldr	r3, .L76+4
 549 009c 1B68     		ldr	r3, [r3]
 550 009e 6268     		ldr	r2, [r4, #4]
 551 00a0 9B1A     		subs	r3, r3, r2
 552 00a2 462B     		cmp	r3, #70
 553 00a4 01D9     		bls	.L62
 153:.\rc_ch.c     ****             rc_ch->connected = 0;
 554              		.loc 1 153 0
 555 00a6 0023     		movs	r3, #0
 556 00a8 6370     		strb	r3, [r4, #1]
 557              	.L62:
 154:.\rc_ch.c     ****         }
 155:.\rc_ch.c     ****     }
 156:.\rc_ch.c     ****     
 157:.\rc_ch.c     ****     // if the RC  channel is connected, remap the duty cycle count value to an integer between -255
 158:.\rc_ch.c     ****     if (rc_ch->connected && isr_rc_timer_int_flag) {
 558              		.loc 1 158 0
 559 00aa 6378     		ldrb	r3, [r4, #1]	@ zero_extendqisi2
 560 00ac 002B     		cmp	r3, #0
 561 00ae 4FD0     		beq	.L36
 562              		.loc 1 158 0 is_stmt 0 discriminator 1
 563 00b0 002E     		cmp	r6, #0
 564 00b2 4DD0     		beq	.L36
 565              	.LBB2:
 159:.\rc_ch.c     ****         uint32 rc_ch_timer_count = (isr_rc_timer_count < RC_TIMER_MIN_VALUE || 
 566              		.loc 1 159 0 is_stmt 1
 567 00b4 A5F5B743 		sub	r3, r5, #23424
 568 00b8 4C3B     		subs	r3, r3, #76
 160:.\rc_ch.c     ****                                     isr_rc_timer_count > RC_TIMER_MAX_VALUE) ? 
 161:.\rc_ch.c     ****                                     rc_ch->last_timer_count : isr_rc_timer_count;
 569              		.loc 1 161 0
 570 00ba 45F2FC32 		movw	r2, #21500
 571 00be 9342     		cmp	r3, r2
 572 00c0 00D9     		bls	.L64
 573              		.loc 1 161 0 is_stmt 0 discriminator 1
 574 00c2 A568     		ldr	r5, [r4, #8]
 575              	.LVL43:
 576              	.L64:
 162:.\rc_ch.c     ****         
ARM GAS  C:\Users\Michael\AppData\Local\Temp\cceznV4T.s 			page 14


 163:.\rc_ch.c     ****         if (abs(RC_TIMER_MID_VALUE - rc_ch_timer_count) < RC_TIMER_MID_TOLERANCE) {
 577              		.loc 1 163 0 is_stmt 1
 578 00c4 C5F50C43 		rsb	r3, r5, #35840
 579              	.LVL44:
 580 00c8 A033     		adds	r3, r3, #160
 581 00ca 13F5167F 		cmn	r3, #600
 582 00ce 05DD     		ble	.L65
 583              		.loc 1 163 0 is_stmt 0 discriminator 1
 584 00d0 B3F5167F 		cmp	r3, #600
 585 00d4 02DA     		bge	.L65
 164:.\rc_ch.c     ****             rc_ch->value = RC_MIN_VALUE;
 586              		.loc 1 164 0 is_stmt 1
 587 00d6 0023     		movs	r3, #0
 588 00d8 A381     		strh	r3, [r4, #12]	@ movhi
 589 00da 11E0     		b	.L66
 590              	.L65:
 591              	.LBB3:
 165:.\rc_ch.c     ****         } else {
 166:.\rc_ch.c     ****             const int RC_TIMER_AMPLITUDE = rc_ch_timer_count > RC_TIMER_MID_VALUE ? RC_TIMER_MAX_VA
 592              		.loc 1 166 0
 593 00dc 48F6A043 		movw	r3, #36000
 594 00e0 9D42     		cmp	r5, r3
 595 00e2 02D9     		bls	.L74
 596 00e4 42F22832 		movw	r2, #9000
 597 00e8 01E0     		b	.L67
 598              	.L74:
 599 00ea 43F2D402 		movw	r2, #12500
 600              	.L67:
 601              	.LVL45:
 167:.\rc_ch.c     ****             rc_ch->value = (RC_MAX_VALUE - RC_MIN_VALUE) * ((int32) rc_ch_timer_count - RC_TIMER_MI
 602              		.loc 1 167 0 discriminator 4
 603 00ee A5F50C43 		sub	r3, r5, #35840
 604 00f2 A03B     		subs	r3, r3, #160
 605 00f4 C3EB0313 		rsb	r3, r3, r3, lsl #4
 606 00f8 1B01     		lsls	r3, r3, #4
 607 00fa 93FBF2F3 		sdiv	r3, r3, r2
 608 00fe A381     		strh	r3, [r4, #12]	@ movhi
 609              	.LVL46:
 610              	.L66:
 611              	.LBE3:
 168:.\rc_ch.c     ****         }
 169:.\rc_ch.c     ****         
 170:.\rc_ch.c     ****         /*char debug[64] = "";
 171:.\rc_ch.c     ****         sprintf(debug, "[%ld] %d: %d --> %d", MILLISECONDS, rc_ch->ch_number, rc_ch_timer_count, rc
 172:.\rc_ch.c     ****         
 173:.\rc_ch.c     ****         sprintf(debug, "%s\r\n", debug);
 174:.\rc_ch.c     ****         USBUART_PutString(debug);*/
 175:.\rc_ch.c     ****         
 176:.\rc_ch.c     ****         if (rc_ch->value < -RC_MAX_VALUE)
 612              		.loc 1 176 0
 613 0100 B4F90C30 		ldrsh	r3, [r4, #12]
 614 0104 13F1F00F 		cmn	r3, #240
 615 0108 02DA     		bge	.L68
 177:.\rc_ch.c     ****             rc_ch->value = -RC_MAX_VALUE;
 616              		.loc 1 177 0
 617 010a 4FF61073 		movw	r3, #65296
 618 010e A381     		strh	r3, [r4, #12]	@ movhi
ARM GAS  C:\Users\Michael\AppData\Local\Temp\cceznV4T.s 			page 15


 619              	.L68:
 178:.\rc_ch.c     ****         if (rc_ch->value > RC_MAX_VALUE)
 620              		.loc 1 178 0
 621 0110 B4F90C30 		ldrsh	r3, [r4, #12]
 622 0114 F02B     		cmp	r3, #240
 623 0116 01DD     		ble	.L69
 179:.\rc_ch.c     ****             rc_ch->value = RC_MAX_VALUE;
 624              		.loc 1 179 0
 625 0118 F023     		movs	r3, #240
 626 011a A381     		strh	r3, [r4, #12]	@ movhi
 627              	.L69:
 180:.\rc_ch.c     ****         
 181:.\rc_ch.c     ****         rc_ch->last_timer_count = rc_ch_timer_count;
 628              		.loc 1 181 0
 629 011c A560     		str	r5, [r4, #8]
 630              	.LVL47:
 182:.\rc_ch.c     ****         isr_rc_timer_int_flag = 0;
 183:.\rc_ch.c     ****         
 184:.\rc_ch.c     ****         if (rc_ch->ch_number == 1)
 631              		.loc 1 184 0
 632 011e 2378     		ldrb	r3, [r4]	@ zero_extendqisi2
 633 0120 012B     		cmp	r3, #1
 634 0122 01D1     		bne	.L70
 185:.\rc_ch.c     ****             RC_Ch1_Timer_Start();
 635              		.loc 1 185 0
 636 0124 FFF7FEFF 		bl	RC_Ch1_Timer_Start
 637              	.LVL48:
 638              	.L70:
 186:.\rc_ch.c     ****         if (rc_ch->ch_number == 2)
 639              		.loc 1 186 0
 640 0128 2378     		ldrb	r3, [r4]	@ zero_extendqisi2
 641 012a 022B     		cmp	r3, #2
 642 012c 01D1     		bne	.L71
 187:.\rc_ch.c     ****             RC_Ch2_Timer_Start();
 643              		.loc 1 187 0
 644 012e FFF7FEFF 		bl	RC_Ch2_Timer_Start
 645              	.LVL49:
 646              	.L71:
 188:.\rc_ch.c     ****         if (rc_ch->ch_number == 3)
 647              		.loc 1 188 0
 648 0132 2378     		ldrb	r3, [r4]	@ zero_extendqisi2
 649 0134 032B     		cmp	r3, #3
 650 0136 01D1     		bne	.L72
 189:.\rc_ch.c     ****             RC_Ch3_Timer_Start();
 651              		.loc 1 189 0
 652 0138 FFF7FEFF 		bl	RC_Ch3_Timer_Start
 653              	.LVL50:
 654              	.L72:
 190:.\rc_ch.c     ****         if (rc_ch->ch_number == 4)
 655              		.loc 1 190 0
 656 013c 2378     		ldrb	r3, [r4]	@ zero_extendqisi2
 657 013e 042B     		cmp	r3, #4
 658 0140 01D1     		bne	.L73
 191:.\rc_ch.c     ****             RC_Ch4_Timer_Start();
 659              		.loc 1 191 0
 660 0142 FFF7FEFF 		bl	RC_Ch4_Timer_Start
 661              	.LVL51:
ARM GAS  C:\Users\Michael\AppData\Local\Temp\cceznV4T.s 			page 16


 662              	.L73:
 192:.\rc_ch.c     ****         if (rc_ch->ch_number == 5)
 663              		.loc 1 192 0
 664 0146 2378     		ldrb	r3, [r4]	@ zero_extendqisi2
 665 0148 052B     		cmp	r3, #5
 666 014a 01D1     		bne	.L36
 193:.\rc_ch.c     ****             RC_Ch5_Timer_Start();
 667              		.loc 1 193 0
 668 014c FFF7FEFF 		bl	RC_Ch5_Timer_Start
 669              	.LVL52:
 670              	.L36:
 671 0150 70BD     		pop	{r4, r5, r6, pc}
 672              	.LVL53:
 673              	.L77:
 674 0152 00BF     		.align	2
 675              	.L76:
 676 0154 00000000 		.word	.LANCHOR0
 677 0158 00000000 		.word	MILLISECONDS
 678              	.LBE2:
 679              		.cfi_endproc
 680              	.LFE70:
 681              		.size	get_rc_ch_value, .-get_rc_ch_value
 682              		.global	RC_CONVERTING_THRESHOLD_VALUE
 683              		.global	RC_CH5_THRESHOLD_VALUE
 684              		.global	RC_CH1_MIN_VALUE
 685              		.global	RC_MIN_VALUE
 686              		.global	RC_MAX_VALUE
 687              		.global	RC_CONNECTION_TIMEOUT
 688              		.global	RC_TIMER_MID_TOLERANCE
 689              		.global	RC_TIMER_MIN_VALUE
 690              		.global	RC_TIMER_MID_VALUE
 691              		.global	RC_TIMER_MAX_VALUE
 692              		.global	RC_TIMER_PERIOD
 693              		.section	.rodata
 694              		.align	2
 695              		.type	RC_CONVERTING_THRESHOLD_VALUE, %object
 696              		.size	RC_CONVERTING_THRESHOLD_VALUE, 4
 697              	RC_CONVERTING_THRESHOLD_VALUE:
 698 0000 64000000 		.word	100
 699              		.type	RC_CH5_THRESHOLD_VALUE, %object
 700              		.size	RC_CH5_THRESHOLD_VALUE, 4
 701              	RC_CH5_THRESHOLD_VALUE:
 702 0004 0F000000 		.word	15
 703              		.type	RC_CH1_MIN_VALUE, %object
 704              		.size	RC_CH1_MIN_VALUE, 4
 705              	RC_CH1_MIN_VALUE:
 706 0008 19000000 		.word	25
 707              		.type	RC_MIN_VALUE, %object
 708              		.size	RC_MIN_VALUE, 4
 709              	RC_MIN_VALUE:
 710 000c 00000000 		.space	4
 711              		.type	RC_MAX_VALUE, %object
 712              		.size	RC_MAX_VALUE, 4
 713              	RC_MAX_VALUE:
 714 0010 F0000000 		.word	240
 715              		.type	RC_CONNECTION_TIMEOUT, %object
 716              		.size	RC_CONNECTION_TIMEOUT, 4
ARM GAS  C:\Users\Michael\AppData\Local\Temp\cceznV4T.s 			page 17


 717              	RC_CONNECTION_TIMEOUT:
 718 0014 46000000 		.word	70
 719              		.type	RC_TIMER_MID_TOLERANCE, %object
 720              		.size	RC_TIMER_MID_TOLERANCE, 4
 721              	RC_TIMER_MID_TOLERANCE:
 722 0018 58020000 		.word	600
 723              		.type	RC_TIMER_MIN_VALUE, %object
 724              		.size	RC_TIMER_MIN_VALUE, 4
 725              	RC_TIMER_MIN_VALUE:
 726 001c CC5B0000 		.word	23500
 727              		.type	RC_TIMER_MID_VALUE, %object
 728              		.size	RC_TIMER_MID_VALUE, 4
 729              	RC_TIMER_MID_VALUE:
 730 0020 A08C0000 		.word	36000
 731              		.type	RC_TIMER_MAX_VALUE, %object
 732              		.size	RC_TIMER_MAX_VALUE, 4
 733              	RC_TIMER_MAX_VALUE:
 734 0024 C8AF0000 		.word	45000
 735              		.type	RC_TIMER_PERIOD, %object
 736              		.size	RC_TIMER_PERIOD, 4
 737              	RC_TIMER_PERIOD:
 738 0028 1FA10700 		.word	499999
 739              		.bss
 740              		.align	2
 741              		.set	.LANCHOR0,. + 0
 742              		.type	isr_rc_ch1_timer_int_flag, %object
 743              		.size	isr_rc_ch1_timer_int_flag, 1
 744              	isr_rc_ch1_timer_int_flag:
 745 0000 00       		.space	1
 746 0001 000000   		.space	3
 747              		.type	isr_rc_ch1_timer_count, %object
 748              		.size	isr_rc_ch1_timer_count, 4
 749              	isr_rc_ch1_timer_count:
 750 0004 00000000 		.space	4
 751              		.type	isr_rc_ch2_timer_int_flag, %object
 752              		.size	isr_rc_ch2_timer_int_flag, 1
 753              	isr_rc_ch2_timer_int_flag:
 754 0008 00       		.space	1
 755 0009 000000   		.space	3
 756              		.type	isr_rc_ch2_timer_count, %object
 757              		.size	isr_rc_ch2_timer_count, 4
 758              	isr_rc_ch2_timer_count:
 759 000c 00000000 		.space	4
 760              		.type	isr_rc_ch3_timer_int_flag, %object
 761              		.size	isr_rc_ch3_timer_int_flag, 1
 762              	isr_rc_ch3_timer_int_flag:
 763 0010 00       		.space	1
 764 0011 000000   		.space	3
 765              		.type	isr_rc_ch3_timer_count, %object
 766              		.size	isr_rc_ch3_timer_count, 4
 767              	isr_rc_ch3_timer_count:
 768 0014 00000000 		.space	4
 769              		.type	isr_rc_ch4_timer_int_flag, %object
 770              		.size	isr_rc_ch4_timer_int_flag, 1
 771              	isr_rc_ch4_timer_int_flag:
 772 0018 00       		.space	1
 773 0019 000000   		.space	3
ARM GAS  C:\Users\Michael\AppData\Local\Temp\cceznV4T.s 			page 18


 774              		.type	isr_rc_ch4_timer_count, %object
 775              		.size	isr_rc_ch4_timer_count, 4
 776              	isr_rc_ch4_timer_count:
 777 001c 00000000 		.space	4
 778              		.type	isr_rc_ch5_timer_int_flag, %object
 779              		.size	isr_rc_ch5_timer_int_flag, 1
 780              	isr_rc_ch5_timer_int_flag:
 781 0020 00       		.space	1
 782 0021 000000   		.space	3
 783              		.type	isr_rc_ch5_timer_count, %object
 784              		.size	isr_rc_ch5_timer_count, 4
 785              	isr_rc_ch5_timer_count:
 786 0024 00000000 		.space	4
 787              		.text
 788              	.Letext0:
 789              		.file 2 "c:\\program files (x86)\\cypress\\psoc creator\\3.3\\psoc creator\\import\\gnu\\arm\\4.9.
 790              		.file 3 "c:\\program files (x86)\\cypress\\psoc creator\\3.3\\psoc creator\\import\\gnu\\arm\\4.9.
 791              		.file 4 "Generated_Source\\PSoC5/cytypes.h"
 792              		.file 5 ".\\rc_ch.h"
 793              		.file 6 "Generated_Source\\PSoC5/core_cm3.h"
 794              		.file 7 ".\\milliseconds.h"
 795              		.file 8 "Generated_Source\\PSoC5/RC_Ch1_Timer.h"
 796              		.file 9 "Generated_Source\\PSoC5/RC_Ch2_Timer.h"
 797              		.file 10 "Generated_Source\\PSoC5/RC_Ch3_Timer.h"
 798              		.file 11 "Generated_Source\\PSoC5/RC_Ch4_Timer.h"
 799              		.file 12 "Generated_Source\\PSoC5/RC_Ch5_Timer.h"
 800              		.file 13 "Generated_Source\\PSoC5/RC_Ch1_Timer_Interrupt.h"
 801              		.file 14 "Generated_Source\\PSoC5/RC_Ch2_Timer_Interrupt.h"
 802              		.file 15 "Generated_Source\\PSoC5/RC_Ch3_Timer_Interrupt.h"
 803              		.file 16 "Generated_Source\\PSoC5/RC_Ch4_Timer_Interrupt.h"
 804              		.file 17 "Generated_Source\\PSoC5/RC_Ch5_Timer_Interrupt.h"
 805              		.file 18 "Generated_Source\\PSoC5/RC_Ch1.h"
 806              		.file 19 "Generated_Source\\PSoC5/RC_Ch2.h"
 807              		.file 20 "Generated_Source\\PSoC5/RC_Ch3.h"
 808              		.file 21 "Generated_Source\\PSoC5/RC_Ch4.h"
 809              		.file 22 "Generated_Source\\PSoC5/RC_Ch5.h"
 810              		.file 23 "<built-in>"