ARM GAS  C:\Users\Michael\AppData\Local\Temp\ccgW2ayJ.s 			page 1


   1              		.syntax unified
   2              		.cpu cortex-m3
   3              		.fpu softvfp
   4              		.eabi_attribute 20, 1
   5              		.eabi_attribute 21, 1
   6              		.eabi_attribute 23, 3
   7              		.eabi_attribute 24, 1
   8              		.eabi_attribute 25, 1
   9              		.eabi_attribute 26, 1
  10              		.eabi_attribute 30, 1
  11              		.eabi_attribute 34, 1
  12              		.eabi_attribute 18, 4
  13              		.thumb
  14              		.file	"servo.c"
  15              		.text
  16              	.Ltext0:
  17              		.cfi_sections	.debug_frame
  18              		.section	.text.init_servos,"ax",%progbits
  19              		.align	2
  20              		.global	init_servos
  21              		.thumb
  22              		.thumb_func
  23              		.type	init_servos, %function
  24              	init_servos:
  25              	.LFB63:
  26              		.file 1 ".\\servo.c"
   1:.\servo.c     **** /* ========================================
   2:.\servo.c     ****  *
   3:.\servo.c     ****  * Copyright YOUR COMPANY, THE YEAR
   4:.\servo.c     ****  * All Rights Reserved
   5:.\servo.c     ****  * UNPUBLISHED, LICENSED SOFTWARE.
   6:.\servo.c     ****  *
   7:.\servo.c     ****  * CONFIDENTIAL AND PROPRIETARY INFORMATION
   8:.\servo.c     ****  * WHICH IS THE PROPERTY OF your company.
   9:.\servo.c     ****  *
  10:.\servo.c     ****  * ========================================
  11:.\servo.c     **** */
  12:.\servo.c     **** #include "project.h"
  13:.\servo.c     **** #include "servo.h"
  14:.\servo.c     **** 
  15:.\servo.c     **** // initialize all PSoC components for servos
  16:.\servo.c     **** void init_servos() {
  27              		.loc 1 16 0
  28              		.cfi_startproc
  29              		@ args = 0, pretend = 0, frame = 0
  30              		@ frame_needed = 0, uses_anonymous_args = 0
  31 0000 08B5     		push	{r3, lr}
  32              		.cfi_def_cfa_offset 8
  33              		.cfi_offset 3, -8
  34              		.cfi_offset 14, -4
  17:.\servo.c     ****     Head_Servo_PWM_Start();
  35              		.loc 1 17 0
  36 0002 FFF7FEFF 		bl	Head_Servo_PWM_Start
  37              	.LVL0:
  38 0006 08BD     		pop	{r3, pc}
  39              		.cfi_endproc
  40              	.LFE63:
ARM GAS  C:\Users\Michael\AppData\Local\Temp\ccgW2ayJ.s 			page 2


  41              		.size	init_servos, .-init_servos
  42              		.global	__aeabi_i2d
  43              		.global	__aeabi_ddiv
  44              		.global	__aeabi_dmul
  45              		.global	__aeabi_dadd
  46              		.global	__aeabi_d2iz
  47              		.section	.text.set_servo_pos,"ax",%progbits
  48              		.align	2
  49              		.global	set_servo_pos
  50              		.thumb
  51              		.thumb_func
  52              		.type	set_servo_pos, %function
  53              	set_servo_pos:
  54              	.LFB65:
  18:.\servo.c     **** }
  19:.\servo.c     **** 
  20:.\servo.c     **** // construct a servo struct object
  21:.\servo.c     **** void construct_servo(SERVO *servo, uint8 id, int8 init_pos) {
  22:.\servo.c     ****     servo->id = id;
  23:.\servo.c     ****     set_servo_pos(servo, init_pos);
  24:.\servo.c     **** }
  25:.\servo.c     **** 
  26:.\servo.c     **** // write a PWM value to the servo based on the provided position
  27:.\servo.c     **** void set_servo_pos(SERVO *servo, int16 pos) {
  55              		.loc 1 27 0
  56              		.cfi_startproc
  57              		@ args = 0, pretend = 0, frame = 0
  58              		@ frame_needed = 0, uses_anonymous_args = 0
  59              	.LVL1:
  60 0000 08B5     		push	{r3, lr}
  61              		.cfi_def_cfa_offset 8
  62              		.cfi_offset 3, -8
  63              		.cfi_offset 14, -4
  28:.\servo.c     ****     servo->pos = pos;
  64              		.loc 1 28 0
  65 0002 4170     		strb	r1, [r0, #1]
  29:.\servo.c     ****     if (servo->id == HEAD_SERVO) {
  66              		.loc 1 29 0
  67 0004 0378     		ldrb	r3, [r0]	@ zero_extendqisi2
  68 0006 EBB9     		cbnz	r3, .L3
  69              	.LBB2:
  30:.\servo.c     ****         int pos_microseconds = (pos/180.0 * NUM_COUNTS_MS/2) + NUM_COUNTS_MS/2;
  70              		.loc 1 30 0
  71 0008 0846     		mov	r0, r1
  72              	.LVL2:
  73 000a FFF7FEFF 		bl	__aeabi_i2d
  74              	.LVL3:
  75 000e 0022     		movs	r2, #0
  76 0010 0D4B     		ldr	r3, .L6
  77 0012 FFF7FEFF 		bl	__aeabi_ddiv
  78              	.LVL4:
  79 0016 0022     		movs	r2, #0
  80 0018 0C4B     		ldr	r3, .L6+4
  81 001a FFF7FEFF 		bl	__aeabi_dmul
  82              	.LVL5:
  83 001e 0022     		movs	r2, #0
  84 0020 0B4B     		ldr	r3, .L6+8
ARM GAS  C:\Users\Michael\AppData\Local\Temp\ccgW2ayJ.s 			page 3


  85 0022 FFF7FEFF 		bl	__aeabi_dmul
  86              	.LVL6:
  87 0026 0022     		movs	r2, #0
  88 0028 0A4B     		ldr	r3, .L6+12
  89 002a FFF7FEFF 		bl	__aeabi_dadd
  90              	.LVL7:
  91 002e FFF7FEFF 		bl	__aeabi_d2iz
  92              	.LVL8:
  31:.\servo.c     ****         if (pos_microseconds > NUM_COUNTS_MS/2 && pos_microseconds < NUM_COUNTS_MS)
  93              		.loc 1 31 0
  94 0032 A0F2D172 		subw	r2, r0, #2001
  95 0036 40F2CE73 		movw	r3, #1998
  96 003a 9A42     		cmp	r2, r3
  97 003c 02D8     		bhi	.L3
  32:.\servo.c     ****             Head_Servo_PWM_WriteCompare(pos_microseconds);
  98              		.loc 1 32 0
  99 003e 80B2     		uxth	r0, r0
 100              	.LVL9:
 101 0040 FFF7FEFF 		bl	Head_Servo_PWM_WriteCompare
 102              	.LVL10:
 103              	.L3:
 104 0044 08BD     		pop	{r3, pc}
 105              	.L7:
 106 0046 00BF     		.align	2
 107              	.L6:
 108 0048 00806640 		.word	1080459264
 109 004c 0040AF40 		.word	1085227008
 110 0050 0000E03F 		.word	1071644672
 111 0054 00409F40 		.word	1084178432
 112              	.LBE2:
 113              		.cfi_endproc
 114              	.LFE65:
 115              		.size	set_servo_pos, .-set_servo_pos
 116              		.section	.text.construct_servo,"ax",%progbits
 117              		.align	2
 118              		.global	construct_servo
 119              		.thumb
 120              		.thumb_func
 121              		.type	construct_servo, %function
 122              	construct_servo:
 123              	.LFB64:
  21:.\servo.c     ****     servo->id = id;
 124              		.loc 1 21 0
 125              		.cfi_startproc
 126              		@ args = 0, pretend = 0, frame = 0
 127              		@ frame_needed = 0, uses_anonymous_args = 0
 128              	.LVL11:
 129 0000 08B5     		push	{r3, lr}
 130              		.cfi_def_cfa_offset 8
 131              		.cfi_offset 3, -8
 132              		.cfi_offset 14, -4
  22:.\servo.c     ****     set_servo_pos(servo, init_pos);
 133              		.loc 1 22 0
 134 0002 0170     		strb	r1, [r0]
  23:.\servo.c     **** }
 135              		.loc 1 23 0
 136 0004 1146     		mov	r1, r2
ARM GAS  C:\Users\Michael\AppData\Local\Temp\ccgW2ayJ.s 			page 4


 137              	.LVL12:
 138 0006 FFF7FEFF 		bl	set_servo_pos
 139              	.LVL13:
 140 000a 08BD     		pop	{r3, pc}
 141              		.cfi_endproc
 142              	.LFE64:
 143              		.size	construct_servo, .-construct_servo
 144              		.text
 145              	.Letext0:
 146              		.file 2 "c:\\program files (x86)\\cypress\\psoc creator\\3.3\\psoc creator\\import\\gnu\\arm\\4.9.
 147              		.file 3 "c:\\program files (x86)\\cypress\\psoc creator\\3.3\\psoc creator\\import\\gnu\\arm\\4.9.
 148              		.file 4 "Generated_Source\\PSoC5/cytypes.h"
 149              		.file 5 ".\\servo.h"
 150              		.file 6 "Generated_Source\\PSoC5/core_cm3.h"
 151              		.file 7 "Generated_Source\\PSoC5/Head_Servo_PWM.h"